; Function Attrs: nounwind uwtable
define void @dt_bauhaus_combobox_remove_at(ptr noundef %0, i32 noundef %1) local_unnamed_addr #0 {
  %3 = load atomic i64, ptr @dt_bh_get_type.static_g_define_type_id seq_cst, align 8
  %.not.i.i.i = icmp eq i64 %3, 0
  br i1 %.not.i.i.i, label %4, label %DT_BAUHAUS_WIDGET.exit.i

4:                                                ; preds = %2
  %5 = tail call i32 @g_once_init_enter(ptr noundef nonnull @dt_bh_get_type.static_g_define_type_id) #19
  %.not4.i.i.i = icmp eq i32 %5, 0
  br i1 %.not4.i.i.i, label %DT_BAUHAUS_WIDGET.exit.i, label %6

6:                                                ; preds = %4
  %7 = tail call fastcc i64 @dt_bh_get_type_once()
  tail call void @g_once_init_leave(ptr noundef nonnull @dt_bh_get_type.static_g_define_type_id, i64 noundef %7) #19
  br label %DT_BAUHAUS_WIDGET.exit.i

DT_BAUHAUS_WIDGET.exit.i:                         ; preds = %6, %4, %2
  %8 = load i64, ptr @dt_bh_get_type.static_g_define_type_id, align 8, !tbaa !6
  %9 = tail call ptr @g_type_check_instance_cast(ptr noundef %0, i64 noundef %8) #19
  %10 = getelementptr inbounds nuw i8, ptr %9, i64 40
  %11 = load i32, ptr %10, align 8, !tbaa !105
  %.not.i = icmp eq i32 %11, 2
  br i1 %.not.i, label %12, label %_combobox_data.exit.thread

12:                                               ; preds = %DT_BAUHAUS_WIDGET.exit.i
  %13 = getelementptr inbounds nuw i8, ptr %9, i64 408
  %14 = load i32, ptr %13, align 8, !tbaa !137
  %15 = getelementptr inbounds nuw i8, ptr %9, i64 440
  %16 = load ptr, ptr %15, align 8, !tbaa !128
  %17 = getelementptr inbounds nuw i8, ptr %16, i64 8
  %18 = load i32, ptr %17, align 8, !tbaa !131
  %.not8.i = icmp ult i32 %14, %18
  br i1 %.not8.i, label %_combobox_data.exit, label %19

19:                                               ; preds = %12
  store i32 -1, ptr %13, align 8, !tbaa !137
  br label %_combobox_data.exit

_combobox_data.exit:                              ; preds = %12, %19
  %20 = phi i32 [ %14, %12 ], [ -1, %19 ]
  %21 = icmp sgt i32 %1, -1
  %.not = icmp ult i32 %1, %18
  %or.cond = and i1 %21, %.not
  br i1 %or.cond, label %22, label %_combobox_data.exit.thread

22:                                               ; preds = %_combobox_data.exit
  %23 = icmp sgt i32 %20, %1
  %24 = add i32 %18, -1
  %25 = icmp eq i32 %20, %24
  %or.cond16 = or i1 %23, %25
  br i1 %or.cond16, label %26, label %28

26:                                               ; preds = %22
  %27 = add nsw i32 %20, -1
  store i32 %27, ptr %13, align 8, !tbaa !137
  br label %28

28:                                               ; preds = %22, %26
  %29 = tail call ptr @g_ptr_array_remove_index(ptr noundef nonnull %16, i32 noundef %1) #19
  br label %_combobox_data.exit.thread

_combobox_data.exit.thread:                       ; preds = %DT_BAUHAUS_WIDGET.exit.i, %_combobox_data.exit, %28
  ret void
}